target datalayout = "e-m:e-p270:32:32-p271:32:32-p272:64:64-i64:64-i128:128-f80:128-n8:16:32:64-S128"
target triple = "x86_64-pc-linux-gnu"

%"class.std::_Function_base" = type { %"union.std::_Any_data", ptr }
%"union.std::_Any_data" = type { %"union.std::_Nocopy_types" }
%"union.std::_Nocopy_types" = type { { i64, i64 } }
%"class.rocksdb::FilePrefetchBuffer" = type { %"class.std::deque", %"class.std::deque", ptr, i64, i64, i64, i64, i8, i8, i8, i64, i64, i64, i64, i8, ptr, ptr, ptr, i32, %"class.std::function.10", i64 }
%"class.std::deque" = type { %"class.std::_Deque_base" }
%"class.std::_Deque_base" = type { %"struct.std::_Deque_base<rocksdb::BufferInfo *, std::allocator<rocksdb::BufferInfo *>>::_Deque_impl" }
%"struct.std::_Deque_base<rocksdb::BufferInfo *, std::allocator<rocksdb::BufferInfo *>>::_Deque_impl" = type { %"struct.std::_Deque_base<rocksdb::BufferInfo *, std::allocator<rocksdb::BufferInfo *>>::_Deque_impl_data" }
%"struct.std::_Deque_base<rocksdb::BufferInfo *, std::allocator<rocksdb::BufferInfo *>>::_Deque_impl_data" = type { ptr, i64, %"struct.std::_Deque_iterator", %"struct.std::_Deque_iterator" }
%"struct.std::_Deque_iterator" = type { ptr, ptr, ptr, ptr }
%"class.std::function.10" = type { %"class.std::_Function_base", ptr }

; Function Attrs: inlinehint mustprogress uwtable
define linkonce_odr void @_ZN7rocksdb10RecordTickEPNS_10StatisticsEjm(ptr noundef %0, i32 noundef %1, i64 noundef %2) #5 comdat {
  %4 = alloca ptr, align 8
  %5 = alloca i32, align 4
  %6 = alloca i64, align 8
  store ptr %0, ptr %4, align 8, !tbaa !95
  store i32 %1, ptr %5, align 4, !tbaa !96
  store i64 %2, ptr %6, align 8, !tbaa !11
  %7 = load ptr, ptr %4, align 8, !tbaa !95
  %8 = icmp ne ptr %7, null
  br i1 %8, label %9, label %16

9:                                                ; preds = %3
  %10 = load ptr, ptr %4, align 8, !tbaa !95
  %11 = load i32, ptr %5, align 4, !tbaa !96
  %12 = load i64, ptr %6, align 8, !tbaa !11
  %13 = load ptr, ptr %10, align 8, !tbaa !98
  %14 = getelementptr inbounds ptr, ptr %13, i64 22
  %15 = load ptr, ptr %14, align 8
  call void %15(ptr noundef nonnull align 8 dereferenceable(33) %10, i32 noundef %11, i64 noundef %12)
  br label %16

16:                                               ; preds = %9, %3
  ret void
}

; Function Attrs: mustprogress uwtable
define noundef zeroext i1 @_ZN7rocksdb18FilePrefetchBuffer16TryReadFromCacheERKNS_9IOOptionsEPNS_22RandomAccessFileReaderEmmPNS_5SliceEPNS_6StatusEb(ptr noundef nonnull align 8 dereferenceable(320) %0, ptr noundef nonnull align 8 dereferenceable(84) %1, ptr noundef %2, i64 noundef %3, i64 noundef %4, ptr noundef %5, ptr noundef %6, i1 noundef zeroext %7) #0 align 2 {
  %9 = alloca ptr, align 8
  %10 = alloca ptr, align 8
  %11 = alloca ptr, align 8
  %12 = alloca i64, align 8
  %13 = alloca i64, align 8
  %14 = alloca ptr, align 8
  %15 = alloca ptr, align 8
  %16 = alloca i8, align 1
  %17 = alloca i8, align 1
  store ptr %0, ptr %9, align 8, !tbaa !4
  store ptr %1, ptr %10, align 8, !tbaa !40
  store ptr %2, ptr %11, align 8, !tbaa !42
  store i64 %3, ptr %12, align 8, !tbaa !11
  store i64 %4, ptr %13, align 8, !tbaa !11
  store ptr %5, ptr %14, align 8, !tbaa !61
  store ptr %6, ptr %15, align 8, !tbaa !66
  %18 = zext i1 %7 to i8
  store i8 %18, ptr %16, align 1, !tbaa !13
  %19 = load ptr, ptr %9, align 8
  call void @llvm.lifetime.start.p0(i64 1, ptr %17) #16
  %20 = load ptr, ptr %10, align 8, !tbaa !40
  %21 = load ptr, ptr %11, align 8, !tbaa !42
  %22 = load i64, ptr %12, align 8, !tbaa !11
  %23 = load i64, ptr %13, align 8, !tbaa !11
  %24 = load ptr, ptr %14, align 8, !tbaa !61
  %25 = load ptr, ptr %15, align 8, !tbaa !66
  %26 = load i8, ptr %16, align 1, !tbaa !13, !range !31, !noundef !32
  %27 = trunc i8 %26 to i1
  %28 = call noundef zeroext i1 @_ZN7rocksdb18FilePrefetchBuffer25TryReadFromCacheUntrackedERKNS_9IOOptionsEPNS_22RandomAccessFileReaderEmmPNS_5SliceEPNS_6StatusEb(ptr noundef nonnull align 8 dereferenceable(320) %19, ptr noundef nonnull align 8 dereferenceable(84) %20, ptr noundef %21, i64 noundef %22, i64 noundef %23, ptr noundef %24, ptr noundef %25, i1 noundef zeroext %27)
  %29 = zext i1 %28 to i8
  store i8 %29, ptr %17, align 1, !tbaa !13
  %30 = getelementptr inbounds nuw %"class.rocksdb::FilePrefetchBuffer", ptr %19, i32 0, i32 18
  %31 = load i32, ptr %30, align 8, !tbaa !44
  %32 = icmp eq i32 %31, 0
  br i1 %32, label %33, label %47

33:                                               ; preds = %8
  %34 = getelementptr inbounds nuw %"class.rocksdb::FilePrefetchBuffer", ptr %19, i32 0, i32 7
  %35 = load i8, ptr %34, align 8, !tbaa !120, !range !31, !noundef !32
  %36 = trunc i8 %35 to i1
  br i1 %36, label %37, label %47

37:                                               ; preds = %33
  %38 = load i8, ptr %17, align 1, !tbaa !13, !range !31, !noundef !32
  %39 = trunc i8 %38 to i1
  br i1 %39, label %40, label %43

40:                                               ; preds = %37
  %41 = getelementptr inbounds nuw %"class.rocksdb::FilePrefetchBuffer", ptr %19, i32 0, i32 17
  %42 = load ptr, ptr %41, align 8, !tbaa !60
  call void @_ZN7rocksdb10RecordTickEPNS_10StatisticsEjm(ptr noundef %42, i32 noundef 202, i64 noundef 1)
  br label %46

43:                                               ; preds = %37
  %44 = getelementptr inbounds nuw %"class.rocksdb::FilePrefetchBuffer", ptr %19, i32 0, i32 17
  %45 = load ptr, ptr %44, align 8, !tbaa !60
  call void @_ZN7rocksdb10RecordTickEPNS_10StatisticsEjm(ptr noundef %45, i32 noundef 201, i64 noundef 1)
  br label %46

46:                                               ; preds = %43, %40
  br label %47

47:                                               ; preds = %46, %33, %8
  %48 = load i8, ptr %17, align 1, !tbaa !13, !range !31, !noundef !32
  %49 = trunc i8 %48 to i1
  call void @llvm.lifetime.end.p0(i64 1, ptr %17) #16
  ret i1 %49
}