; Function Attrs: mustprogress uwtable
define noundef zeroext i1 @_ZN7rocksdb18FilePrefetchBuffer16TryReadFromCacheERKNS_9IOOptionsEPNS_22RandomAccessFileReaderEmmPNS_5SliceEPNS_6StatusEb(ptr noundef nonnull align 8 dereferenceable(320) %0, ptr noundef nonnull align 8 dereferenceable(84) %1, ptr noundef %2, i64 noundef %3, i64 noundef %4, ptr noundef writeonly captures(none) %5, ptr noundef %6, i1 noundef zeroext %7) local_unnamed_addr #0 align 2 {
  %9 = tail call noundef zeroext i1 @_ZN7rocksdb18FilePrefetchBuffer25TryReadFromCacheUntrackedERKNS_9IOOptionsEPNS_22RandomAccessFileReaderEmmPNS_5SliceEPNS_6StatusEb(ptr noundef nonnull align 8 dereferenceable(320) %0, ptr noundef nonnull align 8 dereferenceable(84) %1, ptr noundef %2, i64 noundef %3, i64 noundef %4, ptr noundef %5, ptr noundef %6, i1 noundef zeroext %7)
  %10 = getelementptr inbounds nuw i8, ptr %0, i64 272
  %11 = load i32, ptr %10, align 8, !tbaa !59
  %12 = icmp eq i32 %11, 0
  br i1 %12, label %13, label %_ZN7rocksdb10RecordTickEPNS_10StatisticsEjm.exit

13:                                               ; preds = %8
  %14 = getelementptr inbounds nuw i8, ptr %0, i64 200
  %15 = load i8, ptr %14, align 8, !tbaa !93, !range !43, !noundef !44
  %16 = trunc nuw i8 %15 to i1
  br i1 %16, label %17, label %_ZN7rocksdb10RecordTickEPNS_10StatisticsEjm.exit

17:                                               ; preds = %13
  %18 = getelementptr inbounds nuw i8, ptr %0, i64 264
  %19 = load ptr, ptr %18, align 8, !tbaa !76
  %.not.i = icmp eq ptr %19, null
  br i1 %.not.i, label %_ZN7rocksdb10RecordTickEPNS_10StatisticsEjm.exit, label %_ZN7rocksdb10RecordTickEPNS_10StatisticsEjm.exit.sink.split

_ZN7rocksdb10RecordTickEPNS_10StatisticsEjm.exit.sink.split: ; preds = %17
  %. = select i1 %9, i32 202, i32 201
  %20 = load ptr, ptr %19, align 8, !tbaa !77
  %21 = getelementptr inbounds nuw i8, ptr %20, i64 176
  %22 = load ptr, ptr %21, align 8
  tail call void %22(ptr noundef nonnull align 8 dereferenceable(33) %19, i32 noundef %., i64 noundef 1)
  br label %_ZN7rocksdb10RecordTickEPNS_10StatisticsEjm.exit

_ZN7rocksdb10RecordTickEPNS_10StatisticsEjm.exit: ; preds = %17, %_ZN7rocksdb10RecordTickEPNS_10StatisticsEjm.exit.sink.split, %13, %8
  ret i1 %9
}